target datalayout = "e-m:e-p270:32:32-p271:32:32-p272:64:64-i64:64-i128:128-f80:128-n8:16:32:64-S128"
target triple = "x86_64-pc-linux-gnu"

%"class.std::__cxx11::basic_string" = type { %"struct.std::__cxx11::basic_string<char>::_Alloc_hider", i64, %union.anon }
%"struct.std::__cxx11::basic_string<char>::_Alloc_hider" = type { ptr }
%union.anon = type { i64, [8 x i8] }
%class.V3OutFormatter = type <{ ptr, %"class.std::__cxx11::basic_string", i8, [3 x i8], i32, i32, i32, i32, i32, i32, i32, i8, i8, [2 x i8], i32, %"class.std::stack", i32, [4 x i8] }>
%"class.std::stack" = type { %"class.std::deque" }
%"class.std::deque" = type { %"class.std::_Deque_base" }
%"class.std::_Deque_base" = type { %"struct.std::_Deque_base<int, std::allocator<int>>::_Deque_impl" }
%"struct.std::_Deque_base<int, std::allocator<int>>::_Deque_impl" = type { %"struct.std::_Deque_base<int, std::allocator<int>>::_Deque_impl_data" }
%"struct.std::_Deque_base<int, std::allocator<int>>::_Deque_impl_data" = type { ptr, i64, %"struct.std::_Deque_iterator", %"struct.std::_Deque_iterator" }
%"struct.std::_Deque_iterator" = type { ptr, ptr, ptr, ptr }

; Function Attrs: mustprogress nounwind uwtable
define dso_local noundef i32 @_ZN14V3OutFormatter9endLevelsEPKc(ptr noundef nonnull align 8 dereferenceable(164) %0, ptr noundef %1) #7 align 2 {
  %3 = alloca i32, align 4
  %4 = alloca ptr, align 8
  %5 = alloca ptr, align 8
  %6 = alloca i32, align 4
  %7 = alloca ptr, align 8
  %8 = alloca i32, align 4
  %9 = alloca ptr, align 8
  %10 = alloca ptr, align 8
  store ptr %0, ptr %4, align 8, !tbaa !144
  store ptr %1, ptr %5, align 8, !tbaa !35
  %11 = load ptr, ptr %4, align 8
  call void @llvm.lifetime.start.p0(i64 4, ptr %6) #3
  %12 = getelementptr inbounds nuw %class.V3OutFormatter, ptr %11, i32 0, i32 14
  %13 = load i32, ptr %12, align 4, !tbaa !165
  store i32 %13, ptr %6, align 4, !tbaa !102
  call void @llvm.lifetime.start.p0(i64 8, ptr %7) #3
  %14 = load ptr, ptr %5, align 8, !tbaa !35
  store ptr %14, ptr %7, align 8, !tbaa !35
  br label %15

15:                                               ; preds = %21, %2
  %16 = load ptr, ptr %7, align 8, !tbaa !35
  %17 = load i8, ptr %16, align 1, !tbaa !52
  %18 = sext i8 %17 to i32
  %19 = call i32 @isspace(i32 noundef %18) #25
  %20 = icmp ne i32 %19, 0
  br i1 %20, label %21, label %24

21:                                               ; preds = %15
  %22 = load ptr, ptr %7, align 8, !tbaa !35
  %23 = getelementptr inbounds nuw i8, ptr %22, i32 1
  store ptr %23, ptr %7, align 8, !tbaa !35
  br label %15, !llvm.loop !177

24:                                               ; preds = %15
  %25 = load ptr, ptr %7, align 8, !tbaa !35
  %26 = load i8, ptr %25, align 1, !tbaa !52
  %27 = sext i8 %26 to i32
  switch i32 %27, label %30 [
    i32 10, label %28
    i32 35, label %29
  ]

28:                                               ; preds = %24
  store i32 0, ptr %3, align 4
  store i32 1, ptr %8, align 4
  br label %64

29:                                               ; preds = %24
  store i32 0, ptr %3, align 4
  store i32 1, ptr %8, align 4
  br label %64

30:                                               ; preds = %24
  call void @llvm.lifetime.start.p0(i64 8, ptr %9) #3
  %31 = load ptr, ptr %7, align 8, !tbaa !35
  store ptr %31, ptr %9, align 8, !tbaa !35
  br label %32

32:                                               ; preds = %39, %30
  %33 = load ptr, ptr %9, align 8, !tbaa !35
  %34 = load i8, ptr %33, align 1, !tbaa !52
  %35 = sext i8 %34 to i32
  %36 = call i32 @isalnum(i32 noundef %35) #25
  %37 = icmp ne i32 %36, 0
  br i1 %37, label %38, label %42

38:                                               ; preds = %32
  br label %39

39:                                               ; preds = %38
  %40 = load ptr, ptr %9, align 8, !tbaa !35
  %41 = getelementptr inbounds nuw i8, ptr %40, i32 1
  store ptr %41, ptr %9, align 8, !tbaa !35
  br label %32, !llvm.loop !178

42:                                               ; preds = %32
  %43 = load ptr, ptr %9, align 8, !tbaa !35
  %44 = getelementptr inbounds i8, ptr %43, i64 0
  %45 = load i8, ptr %44, align 1, !tbaa !52
  %46 = sext i8 %45 to i32
  %47 = icmp eq i32 %46, 58
  br i1 %47, label %48, label %60

48:                                               ; preds = %42
  %49 = load ptr, ptr %9, align 8, !tbaa !35
  %50 = getelementptr inbounds i8, ptr %49, i64 1
  %51 = load i8, ptr %50, align 1, !tbaa !52
  %52 = sext i8 %51 to i32
  %53 = icmp ne i32 %52, 58
  br i1 %53, label %54, label %60

54:                                               ; preds = %48
  %55 = load i32, ptr %6, align 4, !tbaa !102
  %56 = getelementptr inbounds nuw %class.V3OutFormatter, ptr %11, i32 0, i32 4
  %57 = load i32, ptr %56, align 4, !tbaa !167
  %58 = sdiv i32 %57, 2
  %59 = sub nsw i32 %55, %58
  store i32 %59, ptr %3, align 4
  store i32 1, ptr %8, align 4
  br label %61

60:                                               ; preds = %48, %42
  store i32 0, ptr %8, align 4
  br label %61

61:                                               ; preds = %60, %54
  call void @llvm.lifetime.end.p0(i64 8, ptr %9) #3
  %62 = load i32, ptr %8, align 4
  switch i32 %62, label %64 [
    i32 0, label %63
  ]

63:                                               ; preds = %61
  store i32 0, ptr %8, align 4
  br label %64

64:                                               ; preds = %63, %61, %29, %28
  call void @llvm.lifetime.end.p0(i64 8, ptr %7) #3
  %65 = load i32, ptr %8, align 4
  switch i32 %65, label %125 [
    i32 0, label %66
  ]

66:                                               ; preds = %64
  call void @llvm.lifetime.start.p0(i64 8, ptr %10) #3
  %67 = load ptr, ptr %5, align 8, !tbaa !35
  store ptr %67, ptr %10, align 8, !tbaa !35
  br label %68

68:                                               ; preds = %118, %66
  %69 = load ptr, ptr %10, align 8, !tbaa !35
  %70 = load i8, ptr %69, align 1, !tbaa !52
  %71 = icmp ne i8 %70, 0
  br i1 %71, label %73, label %72

72:                                               ; preds = %68
  store i32 8, ptr %8, align 4
  br label %121

73:                                               ; preds = %68
  %74 = load ptr, ptr %10, align 8, !tbaa !35
  %75 = load i8, ptr %74, align 1, !tbaa !52
  %76 = sext i8 %75 to i32
  switch i32 %76, label %115 [
    i32 125, label %77
    i32 41, label %77
    i32 60, label %82
    i32 101, label %100
    i32 9, label %114
    i32 32, label %114
  ]

77:                                               ; preds = %73, %73
  %78 = getelementptr inbounds nuw %class.V3OutFormatter, ptr %11, i32 0, i32 4
  %79 = load i32, ptr %78, align 4, !tbaa !167
  %80 = load i32, ptr %6, align 4, !tbaa !102
  %81 = sub nsw i32 %80, %79
  store i32 %81, ptr %6, align 4, !tbaa !102
  br label %117

82:                                               ; preds = %73
  %83 = getelementptr inbounds nuw %class.V3OutFormatter, ptr %11, i32 0, i32 2
  %84 = load i8, ptr %83, align 8, !tbaa !148
  %85 = zext i8 %84 to i32
  %86 = icmp eq i32 %85, 3
  br i1 %86, label %87, label %99

87:                                               ; preds = %82
  %88 = load ptr, ptr %10, align 8, !tbaa !35
  %89 = getelementptr inbounds i8, ptr %88, i64 1
  %90 = load i8, ptr %89, align 1, !tbaa !52
  %91 = sext i8 %90 to i32
  %92 = icmp eq i32 %91, 47
  br i1 %92, label %93, label %98

93:                                               ; preds = %87
  %94 = getelementptr inbounds nuw %class.V3OutFormatter, ptr %11, i32 0, i32 4
  %95 = load i32, ptr %94, align 4, !tbaa !167
  %96 = load i32, ptr %6, align 4, !tbaa !102
  %97 = sub nsw i32 %96, %95
  store i32 %97, ptr %6, align 4, !tbaa !102
  br label %98

98:                                               ; preds = %93, %87
  br label %99

99:                                               ; preds = %98, %82
  br label %117

100:                                              ; preds = %73
  %101 = getelementptr inbounds nuw %class.V3OutFormatter, ptr %11, i32 0, i32 2
  %102 = load i8, ptr %101, align 8, !tbaa !148
  %103 = zext i8 %102 to i32
  %104 = icmp eq i32 %103, 1
  br i1 %104, label %105, label %113

105:                                              ; preds = %100
  %106 = load ptr, ptr %10, align 8, !tbaa !35
  %107 = call noundef zeroext i1 @_ZN14V3OutFormatter8tokenEndEPKc(ptr noundef %106)
  br i1 %107, label %108, label %113

108:                                              ; preds = %105
  %109 = getelementptr inbounds nuw %class.V3OutFormatter, ptr %11, i32 0, i32 4
  %110 = load i32, ptr %109, align 4, !tbaa !167
  %111 = load i32, ptr %6, align 4, !tbaa !102
  %112 = sub nsw i32 %111, %110
  store i32 %112, ptr %6, align 4, !tbaa !102
  br label %113

113:                                              ; preds = %108, %105, %100
  br label %117

114:                                              ; preds = %73, %73
  br label %117

115:                                              ; preds = %73
  %116 = load i32, ptr %6, align 4, !tbaa !102
  store i32 %116, ptr %3, align 4
  store i32 1, ptr %8, align 4
  br label %121

117:                                              ; preds = %114, %113, %99, %77
  br label %118

118:                                              ; preds = %117
  %119 = load ptr, ptr %10, align 8, !tbaa !35
  %120 = getelementptr inbounds nuw i8, ptr %119, i32 1
  store ptr %120, ptr %10, align 8, !tbaa !35
  br label %68, !llvm.loop !179

121:                                              ; preds = %115, %72
  call void @llvm.lifetime.end.p0(i64 8, ptr %10) #3
  %122 = load i32, ptr %8, align 4
  switch i32 %122, label %125 [
    i32 8, label %123
  ]

123:                                              ; preds = %121
  %124 = load i32, ptr %6, align 4, !tbaa !102
  store i32 %124, ptr %3, align 4
  store i32 1, ptr %8, align 4
  br label %125

125:                                              ; preds = %123, %121, %64
  call void @llvm.lifetime.end.p0(i64 4, ptr %6) #3
  %126 = load i32, ptr %3, align 4
  ret i32 %126
}