; Function Attrs: mustprogress nofree nounwind willreturn memory(read) uwtable
define dso_local noundef i32 @_ZN14V3OutFormatter9endLevelsEPKc(ptr noundef nonnull readonly align 8 captures(none) dereferenceable(164) %0, ptr noundef readonly captures(none) %1) local_unnamed_addr #12 align 2 {
  %3 = getelementptr inbounds nuw i8, ptr %0, i64 76
  %4 = load i32, ptr %3, align 4, !tbaa !176
  br label %5

5:                                                ; preds = %5, %2
  %.029 = phi ptr [ %1, %2 ], [ %9, %5 ]
  %6 = load i8, ptr %.029, align 1, !tbaa !43
  %7 = sext i8 %6 to i32
  %8 = tail call i32 @isspace(i32 noundef %7) #33
  %.not = icmp eq i32 %8, 0
  %9 = getelementptr inbounds nuw i8, ptr %.029, i64 1
  br i1 %.not, label %10, label %5, !llvm.loop !177

10:                                               ; preds = %5
  switch i8 %6, label %.preheader [
    i8 10, label %.thread
    i8 35, label %.thread
  ]

.preheader:                                       ; preds = %10
  %11 = tail call i32 @isalnum(i32 noundef %7) #33
  %.not3642 = icmp eq i32 %11, 0
  br i1 %.not3642, label %._crit_edge, label %.lr.ph

.lr.ph:                                           ; preds = %.preheader, %.lr.ph
  %.02743 = phi ptr [ %12, %.lr.ph ], [ %.029, %.preheader ]
  %12 = getelementptr inbounds nuw i8, ptr %.02743, i64 1
  %.pr = load i8, ptr %12, align 1, !tbaa !43
  %13 = sext i8 %.pr to i32
  %14 = tail call i32 @isalnum(i32 noundef %13) #33
  %.not36 = icmp eq i32 %14, 0
  br i1 %.not36, label %._crit_edge, label %.lr.ph, !llvm.loop !178

._crit_edge:                                      ; preds = %.lr.ph, %.preheader
  %.lcssa = phi i8 [ %6, %.preheader ], [ %.pr, %.lr.ph ]
  %.027.lcssa = phi ptr [ %.029, %.preheader ], [ %12, %.lr.ph ]
  %15 = icmp eq i8 %.lcssa, 58
  br i1 %15, label %16, label %23

16:                                               ; preds = %._crit_edge
  %17 = getelementptr inbounds nuw i8, ptr %.027.lcssa, i64 1
  %18 = load i8, ptr %17, align 1, !tbaa !43
  %.not37 = icmp eq i8 %18, 58
  br i1 %.not37, label %23, label %19

19:                                               ; preds = %16
  %20 = getelementptr inbounds nuw i8, ptr %0, i64 44
  %21 = load i32, ptr %20, align 4, !tbaa !173
  %.neg = sdiv i32 %21, -2
  %22 = add i32 %.neg, %4
  br label %.thread

23:                                               ; preds = %16, %._crit_edge
  %24 = getelementptr inbounds nuw i8, ptr %0, i64 40
  %25 = load i8, ptr %24, align 8
  %.fr56 = freeze i8 %25
  %26 = getelementptr inbounds nuw i8, ptr %0, i64 44
  %27 = load i32, ptr %26, align 4
  switch i8 %.fr56, label %.split.split [
    i8 1, label %.split.us.split
    i8 3, label %.split.split.us
  ]

.split.us.split:                                  ; preds = %23, %34
  %.030.us = phi i32 [ %.131.us, %34 ], [ %4, %23 ]
  %.0.us = phi ptr [ %35, %34 ], [ %1, %23 ]
  %28 = load i8, ptr %.0.us, align 1, !tbaa !43
  switch i8 %28, label %.thread [
    i8 32, label %34
    i8 125, label %32
    i8 41, label %32
    i8 60, label %34
    i8 101, label %29
    i8 9, label %34
  ]

29:                                               ; preds = %.split.us.split
  %30 = tail call noundef zeroext i1 @_ZN14V3OutFormatter8tokenEndEPKc(ptr noundef nonnull %.0.us)
  %31 = select i1 %30, i32 %27, i32 0
  %spec.select54 = sub nsw i32 %.030.us, %31
  br label %34

32:                                               ; preds = %.split.us.split, %.split.us.split
  %33 = sub nsw i32 %.030.us, %27
  br label %34

34:                                               ; preds = %29, %.split.us.split, %32, %.split.us.split, %.split.us.split
  %.131.us = phi i32 [ %33, %32 ], [ %.030.us, %.split.us.split ], [ %.030.us, %.split.us.split ], [ %spec.select54, %29 ], [ %.030.us, %.split.us.split ]
  %35 = getelementptr inbounds nuw i8, ptr %.0.us, i64 1
  br label %.split.us.split, !llvm.loop !179

.split.split.us:                                  ; preds = %23, %44
  %.030.us45 = phi i32 [ %.131.us47, %44 ], [ %4, %23 ]
  %.0.us46 = phi ptr [ %45, %44 ], [ %1, %23 ]
  %36 = load i8, ptr %.0.us46, align 1, !tbaa !43
  switch i8 %36, label %.thread [
    i8 32, label %44
    i8 125, label %42
    i8 41, label %42
    i8 60, label %37
    i8 101, label %44
    i8 9, label %44
  ]

37:                                               ; preds = %.split.split.us
  %38 = getelementptr inbounds nuw i8, ptr %.0.us46, i64 1
  %39 = load i8, ptr %38, align 1, !tbaa !43
  %40 = icmp eq i8 %39, 47
  %41 = select i1 %40, i32 %27, i32 0
  %spec.select55 = sub nsw i32 %.030.us45, %41
  br label %44

42:                                               ; preds = %.split.split.us, %.split.split.us
  %43 = sub nsw i32 %.030.us45, %27
  br label %44

44:                                               ; preds = %37, %.split.split.us, %42, %.split.split.us, %.split.split.us
  %.131.us47 = phi i32 [ %43, %42 ], [ %.030.us45, %.split.split.us ], [ %.030.us45, %.split.split.us ], [ %.030.us45, %.split.split.us ], [ %spec.select55, %37 ]
  %45 = getelementptr inbounds nuw i8, ptr %.0.us46, i64 1
  br label %.split.split.us, !llvm.loop !179

.split.split:                                     ; preds = %23, %49
  %.030 = phi i32 [ %.131, %49 ], [ %4, %23 ]
  %.0 = phi ptr [ %50, %49 ], [ %1, %23 ]
  %46 = load i8, ptr %.0, align 1, !tbaa !43
  switch i8 %46, label %.thread [
    i8 32, label %49
    i8 125, label %47
    i8 41, label %47
    i8 60, label %49
    i8 101, label %49
    i8 9, label %49
  ]

47:                                               ; preds = %.split.split, %.split.split
  %48 = sub nsw i32 %.030, %27
  br label %49

49:                                               ; preds = %.split.split, %.split.split, %.split.split, %.split.split, %47
  %.131 = phi i32 [ %48, %47 ], [ %.030, %.split.split ], [ %.030, %.split.split ], [ %.030, %.split.split ], [ %.030, %.split.split ]
  %50 = getelementptr inbounds nuw i8, ptr %.0, i64 1
  br label %.split.split, !llvm.loop !179

.thread:                                          ; preds = %.split.split.us, %.split.us.split, %.split.split, %19, %10, %10
  %.234 = phi i32 [ %22, %19 ], [ 0, %10 ], [ 0, %10 ], [ %.030, %.split.split ], [ %.030.us, %.split.us.split ], [ %.030.us45, %.split.split.us ]
  ret i32 %.234
}